target datalayout = "e-m:e-p270:32:32-p271:32:32-p272:64:64-i64:64-i128:128-f80:128-n8:16:32:64-S128"
target triple = "x86_64-pc-linux-gnu"

%struct.PROV_XORSIG_CTX = type { ptr, ptr, ptr, i8, [50 x i8], ptr, i64, ptr, ptr, i32 }

; Function Attrs: nounwind uwtable
define internal ptr @xor_sig_settable_ctx_md_params(ptr noundef %0) #0 {
  %2 = alloca ptr, align 8
  %3 = alloca ptr, align 8
  %4 = alloca ptr, align 8
  %5 = alloca i32, align 4
  store ptr %0, ptr %3, align 8, !tbaa !13
  call void @llvm.lifetime.start.p0(i64 8, ptr %4) #8
  %6 = load ptr, ptr %3, align 8, !tbaa !13
  store ptr %6, ptr %4, align 8, !tbaa !13
  %7 = load ptr, ptr %4, align 8, !tbaa !13
  %8 = getelementptr inbounds nuw %struct.PROV_XORSIG_CTX, ptr %7, i32 0, i32 7
  %9 = load ptr, ptr %8, align 8, !tbaa !148
  %10 = icmp eq ptr %9, null
  br i1 %10, label %11, label %12

11:                                               ; preds = %1
  store ptr null, ptr %2, align 8
  store i32 1, ptr %5, align 4
  br label %17

12:                                               ; preds = %1
  %13 = load ptr, ptr %4, align 8, !tbaa !13
  %14 = getelementptr inbounds nuw %struct.PROV_XORSIG_CTX, ptr %13, i32 0, i32 7
  %15 = load ptr, ptr %14, align 8, !tbaa !148
  %16 = call ptr @EVP_MD_settable_ctx_params(ptr noundef %15)
  store ptr %16, ptr %2, align 8
  store i32 1, ptr %5, align 4
  br label %17

17:                                               ; preds = %12, %11
  call void @llvm.lifetime.end.p0(i64 8, ptr %4) #8
  %18 = load ptr, ptr %2, align 8
  ret ptr %18
}